target datalayout = "e-m:e-p270:32:32-p271:32:32-p272:64:64-i64:64-i128:128-f80:128-n8:16:32:64-S128"
target triple = "x86_64-pc-linux-gnu"

%class.ClaimMetadataVisitingOopIterateClosure = type <{ %class.OopIterateClosure, i32, [4 x i8] }>
%class.OopIterateClosure = type { %class.OopClosure, ptr }
%class.OopClosure = type { ptr }
%class.ShenandoahOnStackNMethodClosure = type { %class.NMethodClosure, ptr }
%class.NMethodClosure = type { ptr }
%class.ShenandoahStackWatermark = type { %class.StackWatermark, ptr, %class.ThreadLocalAllocStats, %class.ShenandoahKeepAliveClosure, %class.ShenandoahEvacuateUpdateRootClosureBase, %class.ShenandoahOnStackNMethodClosure }
%class.StackWatermark = type { ptr, i32, i64, ptr, ptr, ptr, %class.Mutex, i32, %class.GrowableArrayCHeap }
%class.Mutex = type { ptr, %class.PlatformMonitor, ptr }
%class.PlatformMonitor = type { %class.PlatformMutex, %union.pthread_cond_t }
%class.PlatformMutex = type { %union.pthread_mutex_t }
%union.pthread_mutex_t = type { %struct.__pthread_mutex_s }
%struct.__pthread_mutex_s = type { i32, i32, i32, i32, i32, i16, i16, %struct.__pthread_internal_list }
%struct.__pthread_internal_list = type { ptr, ptr }
%union.pthread_cond_t = type { %struct.__pthread_cond_s }
%struct.__pthread_cond_s = type { %union.__atomic_wide_counter, %union.__atomic_wide_counter, [2 x i32], [2 x i32], i32, i32, [2 x i32] }
%union.__atomic_wide_counter = type { i64 }
%class.GrowableArrayCHeap = type { %class.GrowableArrayWithAllocator }
%class.GrowableArrayWithAllocator = type { %class.GrowableArrayView }
%class.GrowableArrayView = type { %class.GrowableArrayBase, ptr }
%class.GrowableArrayBase = type { i32, i32 }
%class.ThreadLocalAllocStats = type { i32, i32, i32, i64, i64, i64, i64, i64, i32, i32 }
%class.ShenandoahKeepAliveClosure = type { %class.OopClosure, ptr }
%class.ShenandoahEvacuateUpdateRootClosureBase = type { %class.ShenandoahOopClosureBase.base, ptr, ptr }
%class.ShenandoahOopClosureBase.base = type { %class.MetadataVisitingOopIterateClosure.base }
%class.MetadataVisitingOopIterateClosure.base = type { %class.ClaimMetadataVisitingOopIterateClosure.base }
%class.ClaimMetadataVisitingOopIterateClosure.base = type <{ %class.OopIterateClosure, i32 }>

@_ZN24ShenandoahStackWatermark9_epoch_idE = hidden global i32 1, align 4
@_ZN10BarrierSet12_barrier_setE = external global ptr, align 8
@_ZN8Universe14_collectedHeapE = external global ptr, align 8
@_ZTV26ShenandoahKeepAliveClosure = linkonce_odr hidden unnamed_addr constant { [4 x ptr] } { [4 x ptr] [ptr null, ptr null, ptr @_ZN26ShenandoahKeepAliveClosure6do_oopEPP7oopDesc, ptr @_ZN26ShenandoahKeepAliveClosure6do_oopEP9narrowOop] }, comdat, align 8
@_ZTV10OopClosure = linkonce_odr hidden unnamed_addr constant { [4 x ptr] } { [4 x ptr] [ptr null, ptr null, ptr @__cxa_pure_virtual, ptr @__cxa_pure_virtual] }, comdat, align 8
@_ZN31ShenandoahOnStackNMethodClosureC1Ev = hidden unnamed_addr alias void (ptr), ptr @_ZN31ShenandoahOnStackNMethodClosureC2Ev

; Function Attrs: mustprogress nounwind uwtable
define linkonce_odr hidden void @_ZN17OopIterateClosureC2EP19ReferenceDiscoverer(ptr noundef nonnull align 8 dereferenceable(16) %0, ptr noundef %1) unnamed_addr #1 comdat align 2 {
  %3 = alloca ptr, align 8
  %4 = alloca ptr, align 8
  store ptr %0, ptr %3, align 8
  store ptr %1, ptr %4, align 8
  %5 = load ptr, ptr %3, align 8
  call void @_ZN10OopClosureC2Ev(ptr noundef nonnull align 8 dereferenceable(8) %5) #7
  store ptr getelementptr inbounds inrange(-16, 64) ({ [10 x ptr] }, ptr @_ZTV17OopIterateClosure, i32 0, i32 0, i32 2), ptr %5, align 8
  %6 = getelementptr inbounds %class.OopIterateClosure, ptr %5, i32 0, i32 1
  %7 = load ptr, ptr %4, align 8
  store ptr %7, ptr %6, align 8
  ret void
}

; Function Attrs: mustprogress nounwind uwtable
define linkonce_odr hidden void @_ZN38ClaimMetadataVisitingOopIterateClosureC2EiP19ReferenceDiscoverer(ptr noundef nonnull align 8 dereferenceable(20) %0, i32 noundef %1, ptr noundef %2) unnamed_addr #1 comdat align 2 {
  %4 = alloca ptr, align 8
  %5 = alloca i32, align 4
  %6 = alloca ptr, align 8
  store ptr %0, ptr %4, align 8
  store i32 %1, ptr %5, align 4
  store ptr %2, ptr %6, align 8
  %7 = load ptr, ptr %4, align 8
  %8 = load ptr, ptr %6, align 8
  call void @_ZN17OopIterateClosureC2EP19ReferenceDiscoverer(ptr noundef nonnull align 8 dereferenceable(16) %7, ptr noundef %8)
  store ptr getelementptr inbounds inrange(-16, 64) ({ [10 x ptr] }, ptr @_ZTV38ClaimMetadataVisitingOopIterateClosure, i32 0, i32 0, i32 2), ptr %7, align 8
  %9 = getelementptr inbounds %class.ClaimMetadataVisitingOopIterateClosure, ptr %7, i32 0, i32 1
  %10 = load i32, ptr %5, align 4
  store i32 %10, ptr %9, align 8
  ret void
}

; Function Attrs: mustprogress nounwind uwtable
define linkonce_odr hidden void @_ZN33MetadataVisitingOopIterateClosureC2EP19ReferenceDiscoverer(ptr noundef nonnull align 8 dereferenceable(20) %0, ptr noundef %1) unnamed_addr #1 comdat align 2 {
  %3 = alloca ptr, align 8
  %4 = alloca ptr, align 8
  store ptr %0, ptr %3, align 8
  store ptr %1, ptr %4, align 8
  %5 = load ptr, ptr %3, align 8
  %6 = load ptr, ptr %4, align 8
  call void @_ZN38ClaimMetadataVisitingOopIterateClosureC2EiP19ReferenceDiscoverer(ptr noundef nonnull align 8 dereferenceable(20) %5, i32 noundef 3, ptr noundef %6)
  store ptr getelementptr inbounds inrange(-16, 64) ({ [10 x ptr] }, ptr @_ZTV33MetadataVisitingOopIterateClosure, i32 0, i32 0, i32 2), ptr %5, align 8
  ret void
}

; Function Attrs: mustprogress nounwind uwtable
define linkonce_odr hidden noundef ptr @_Z16barrier_set_castI20ShenandoahBarrierSetEPT_P10BarrierSet(ptr noundef %0) #1 comdat {
  %2 = alloca ptr, align 8
  store ptr %0, ptr %2, align 8
  %3 = load ptr, ptr %2, align 8
  ret ptr %3
}

; Function Attrs: mustprogress nounwind uwtable
define linkonce_odr hidden noundef ptr @_ZN10BarrierSet11barrier_setEv() #1 comdat align 2 {
  %1 = load ptr, ptr @_ZN10BarrierSet12_barrier_setE, align 8
  ret ptr %1
}

; Function Attrs: mustprogress nounwind uwtable
define linkonce_odr hidden noundef ptr @_ZN8Universe4heapEv() #1 comdat align 2 {
  %1 = load ptr, ptr @_ZN8Universe14_collectedHeapE, align 8
  ret ptr %1
}

; Function Attrs: mustprogress nounwind uwtable
define linkonce_odr hidden void @_ZN24ShenandoahOopClosureBaseC2Ev(ptr noundef nonnull align 8 dereferenceable(20) %0) unnamed_addr #1 comdat align 2 {
  %2 = alloca ptr, align 8
  store ptr %0, ptr %2, align 8
  %3 = load ptr, ptr %2, align 8
  call void @_ZN33MetadataVisitingOopIterateClosureC2EP19ReferenceDiscoverer(ptr noundef nonnull align 8 dereferenceable(20) %3, ptr noundef null)
  store ptr getelementptr inbounds inrange(-16, 64) ({ [10 x ptr] }, ptr @_ZTV24ShenandoahOopClosureBase, i32 0, i32 0, i32 2), ptr %3, align 8
  ret void
}

; Function Attrs: mustprogress nounwind uwtable
define linkonce_odr hidden noundef ptr @_ZN20ShenandoahBarrierSet11barrier_setEv() #1 comdat align 2 {
  %1 = call noundef ptr @_ZN10BarrierSet11barrier_setEv()
  %2 = call noundef ptr @_Z16barrier_set_castI20ShenandoahBarrierSetEPT_P10BarrierSet(ptr noundef %1)
  ret ptr %2
}

; Function Attrs: mustprogress nounwind uwtable
define linkonce_odr hidden void @_ZN10OopClosureC2Ev(ptr noundef nonnull align 8 dereferenceable(8) %0) unnamed_addr #1 comdat align 2 {
  %2 = alloca ptr, align 8
  store ptr %0, ptr %2, align 8
  %3 = load ptr, ptr %2, align 8
  store ptr getelementptr inbounds inrange(-16, 16) ({ [4 x ptr] }, ptr @_ZTV10OopClosure, i32 0, i32 0, i32 2), ptr %3, align 8
  ret void
}

; Function Attrs: mustprogress nounwind uwtable
define linkonce_odr hidden noundef ptr @_ZN13CollectedHeap10named_heapI14ShenandoahHeapEEPT_NS_4NameE(i32 noundef %0) #1 comdat align 2 {
  %2 = alloca i32, align 4
  %3 = alloca ptr, align 8
  store i32 %0, ptr %2, align 4
  %4 = call noundef ptr @_ZN8Universe4heapEv()
  store ptr %4, ptr %3, align 8
  %5 = load ptr, ptr %3, align 8
  ret ptr %5
}

; Function Attrs: mustprogress nounwind uwtable
define linkonce_odr hidden void @_ZN39ShenandoahEvacuateUpdateRootClosureBaseILb1ELb0EEC2Ev(ptr noundef nonnull align 8 dereferenceable(40) %0) unnamed_addr #1 comdat align 2 {
  %2 = alloca ptr, align 8
  store ptr %0, ptr %2, align 8
  %3 = load ptr, ptr %2, align 8
  call void @_ZN24ShenandoahOopClosureBaseC2Ev(ptr noundef nonnull align 8 dereferenceable(20) %3)
  store ptr getelementptr inbounds inrange(-16, 64) ({ [10 x ptr] }, ptr @_ZTV39ShenandoahEvacuateUpdateRootClosureBaseILb1ELb0EE, i32 0, i32 0, i32 2), ptr %3, align 8
  %4 = getelementptr inbounds %class.ShenandoahEvacuateUpdateRootClosureBase, ptr %3, i32 0, i32 1
  %5 = call noundef ptr @_ZN14ShenandoahHeap4heapEv()
  store ptr %5, ptr %4, align 8
  %6 = getelementptr inbounds %class.ShenandoahEvacuateUpdateRootClosureBase, ptr %3, i32 0, i32 2
  store ptr null, ptr %6, align 8
  ret void
}

; Function Attrs: mustprogress nounwind uwtable
define linkonce_odr hidden void @_ZN26ShenandoahKeepAliveClosureC2Ev(ptr noundef nonnull align 8 dereferenceable(16) %0) unnamed_addr #1 comdat align 2 {
  %2 = alloca ptr, align 8
  store ptr %0, ptr %2, align 8
  %3 = load ptr, ptr %2, align 8
  call void @_ZN10OopClosureC2Ev(ptr noundef nonnull align 8 dereferenceable(8) %3) #7
  store ptr getelementptr inbounds inrange(-16, 16) ({ [4 x ptr] }, ptr @_ZTV26ShenandoahKeepAliveClosure, i32 0, i32 0, i32 2), ptr %3, align 8
  %4 = getelementptr inbounds %class.ShenandoahKeepAliveClosure, ptr %3, i32 0, i32 1
  %5 = call noundef ptr @_ZN20ShenandoahBarrierSet11barrier_setEv()
  store ptr %5, ptr %4, align 8
  ret void
}

; Function Attrs: mustprogress nounwind uwtable
define linkonce_odr hidden noundef ptr @_ZN14ShenandoahHeap4heapEv() #1 comdat align 2 {
  %1 = call noundef ptr @_ZN13CollectedHeap10named_heapI14ShenandoahHeapEEPT_NS_4NameE(i32 noundef 6)
  ret ptr %1
}

; Function Attrs: mustprogress nounwind uwtable
define hidden void @_ZN24ShenandoahStackWatermarkC2EP10JavaThread(ptr noundef nonnull align 8 dereferenceable(320) %0, ptr noundef %1) unnamed_addr #1 align 2 {
  %3 = alloca ptr, align 8
  %4 = alloca ptr, align 8
  store ptr %0, ptr %3, align 8
  store ptr %1, ptr %4, align 8
  %5 = load ptr, ptr %3, align 8
  %6 = load ptr, ptr %4, align 8
  %7 = load i32, ptr @_ZN24ShenandoahStackWatermark9_epoch_idE, align 4
  call void @_ZN14StackWatermarkC2EP10JavaThread18StackWatermarkKindj(ptr noundef nonnull align 8 dereferenceable(176) %5, ptr noundef %6, i32 noundef 0, i32 noundef %7)
  store ptr getelementptr inbounds inrange(-16, 48) ({ [8 x ptr] }, ptr @_ZTV24ShenandoahStackWatermark, i32 0, i32 0, i32 2), ptr %5, align 8
  %8 = getelementptr inbounds %class.ShenandoahStackWatermark, ptr %5, i32 0, i32 1
  %9 = call noundef ptr @_ZN14ShenandoahHeap4heapEv()
  store ptr %9, ptr %8, align 8
  %10 = getelementptr inbounds %class.ShenandoahStackWatermark, ptr %5, i32 0, i32 2
  call void @_ZN21ThreadLocalAllocStatsC1Ev(ptr noundef nonnull align 8 dereferenceable(64) %10)
  %11 = getelementptr inbounds %class.ShenandoahStackWatermark, ptr %5, i32 0, i32 3
  call void @_ZN26ShenandoahKeepAliveClosureC2Ev(ptr noundef nonnull align 8 dereferenceable(16) %11)
  %12 = getelementptr inbounds %class.ShenandoahStackWatermark, ptr %5, i32 0, i32 4
  call void @_ZN39ShenandoahEvacuateUpdateRootClosureBaseILb1ELb0EEC2Ev(ptr noundef nonnull align 8 dereferenceable(40) %12)
  %13 = getelementptr inbounds %class.ShenandoahStackWatermark, ptr %5, i32 0, i32 5
  call void @_ZN31ShenandoahOnStackNMethodClosureC1Ev(ptr noundef nonnull align 8 dereferenceable(16) %13)
  ret void
}