; Function Attrs: mustprogress nounwind uwtable
define hidden void @_ZN24ShenandoahStackWatermarkC2EP10JavaThread(ptr noundef nonnull align 8 dereferenceable(320) %0, ptr noundef %1) unnamed_addr #0 align 2 {
  %3 = load i32, ptr @_ZN24ShenandoahStackWatermark9_epoch_idE, align 4
  tail call void @_ZN14StackWatermarkC2EP10JavaThread18StackWatermarkKindj(ptr noundef nonnull align 8 dereferenceable(176) %0, ptr noundef %1, i32 noundef 0, i32 noundef %3) #10
  store ptr getelementptr inbounds inrange(-16, 48) (i8, ptr @_ZTV24ShenandoahStackWatermark, i64 16), ptr %0, align 8
  %4 = getelementptr inbounds i8, ptr %0, i64 176
  %5 = load ptr, ptr @_ZN8Universe14_collectedHeapE, align 8
  store ptr %5, ptr %4, align 8
  %6 = getelementptr inbounds i8, ptr %0, i64 184
  tail call void @_ZN21ThreadLocalAllocStatsC1Ev(ptr noundef nonnull align 8 dereferenceable(64) %6) #10
  %7 = getelementptr inbounds i8, ptr %0, i64 248
  store ptr getelementptr inbounds inrange(-16, 16) (i8, ptr @_ZTV26ShenandoahKeepAliveClosure, i64 16), ptr %7, align 8
  %8 = getelementptr inbounds i8, ptr %0, i64 256
  %9 = load ptr, ptr @_ZN10BarrierSet12_barrier_setE, align 8
  store ptr %9, ptr %8, align 8
  %10 = getelementptr inbounds i8, ptr %0, i64 264
  %11 = getelementptr inbounds i8, ptr %0, i64 272
  store ptr null, ptr %11, align 8
  %12 = getelementptr inbounds i8, ptr %0, i64 280
  store i32 3, ptr %12, align 8
  store ptr getelementptr inbounds inrange(-16, 64) (i8, ptr @_ZTV39ShenandoahEvacuateUpdateRootClosureBaseILb1ELb0EE, i64 16), ptr %10, align 8
  %13 = getelementptr inbounds i8, ptr %0, i64 288
  %14 = load ptr, ptr @_ZN8Universe14_collectedHeapE, align 8
  store ptr %14, ptr %13, align 8
  %15 = getelementptr inbounds i8, ptr %0, i64 296
  store ptr null, ptr %15, align 8
  %16 = getelementptr inbounds i8, ptr %0, i64 304
  store ptr getelementptr inbounds inrange(-16, 8) (i8, ptr @_ZTV31ShenandoahOnStackNMethodClosure, i64 16), ptr %16, align 8
  %17 = getelementptr inbounds i8, ptr %0, i64 312
  %18 = getelementptr inbounds i8, ptr %9, i64 48
  %19 = load ptr, ptr %18, align 8
  store ptr %19, ptr %17, align 8
  ret void
}